target datalayout = "e-m:e-p270:32:32-p271:32:32-p272:64:64-i64:64-i128:128-f80:128-n8:16:32:64-S128"
target triple = "x86_64-unknown-linux-gnu"

%struct.OptsVisitor = type { %struct.Visitor, ptr, i32, ptr, i32, ptr, %union.anon, %union.anon, ptr }
%struct.Visitor = type { ptr, ptr, ptr, ptr, ptr, ptr, ptr, ptr, ptr, ptr, ptr, ptr, ptr, ptr, ptr, ptr, ptr, ptr, ptr, ptr, i32, %struct.CompatPolicy, ptr, ptr }
%struct.CompatPolicy = type { i8, i32, i8, i32, i8, i32, i8, i32 }
%union.anon = type { i64 }
%struct.QTailQLink = type { ptr, ptr }
%struct.QemuOpt = type { ptr, ptr, ptr, %union.anon.2, ptr, %union.anon.3 }
%union.anon.2 = type { i64 }
%union.anon.3 = type { %struct.QTailQLink }

@.str.1 = private unnamed_addr constant [28 x i8] c"../qemu/qapi/opts-visitor.c\00", align 1
@.str.9 = private unnamed_addr constant [1 x i8] zeroinitializer, align 1
@.str.10 = private unnamed_addr constant [60 x i8] c"ov->list_mode == LM_NONE || ov->list_mode == LM_IN_PROGRESS\00", align 1
@__PRETTY_FUNCTION__.opts_type_int64 = private unnamed_addr constant [68 x i8] c"_Bool opts_type_int64(Visitor *, const char *, int64_t *, Error **)\00", align 1
@__func__.opts_type_int64 = private unnamed_addr constant [16 x i8] c"opts_type_int64\00", align 1
@.str.11 = private unnamed_addr constant [26 x i8] c"Parameter '%s' expects %s\00", align 1
@.str.12 = private unnamed_addr constant [15 x i8] c"an int64 value\00", align 1
@.str.13 = private unnamed_addr constant [24 x i8] c"an int64 value or range\00", align 1

; Function Attrs: nounwind sspstrong uwtable
define internal ptr @to_ov(ptr noundef %v) #0 {
entry:
  %v.addr = alloca ptr, align 8
  %__mptr = alloca ptr, align 8
  %tmp = alloca ptr, align 8
  store ptr %v, ptr %v.addr, align 8
  %0 = load ptr, ptr %v.addr, align 8
  store ptr %0, ptr %__mptr, align 8
  %1 = load ptr, ptr %__mptr, align 8
  %add.ptr = getelementptr i8, ptr %1, i64 0
  store ptr %add.ptr, ptr %tmp, align 8
  %2 = load ptr, ptr %tmp, align 8
  ret ptr %2
}

; Function Attrs: nounwind sspstrong uwtable
define internal zeroext i1 @opts_type_int64(ptr noundef %v, ptr noundef %name, ptr noundef %obj, ptr noundef %errp) #0 {
entry:
  %retval = alloca i1, align 1
  %v.addr = alloca ptr, align 8
  %name.addr = alloca ptr, align 8
  %obj.addr = alloca ptr, align 8
  %errp.addr = alloca ptr, align 8
  %ov = alloca ptr, align 8
  %opt = alloca ptr, align 8
  %str = alloca ptr, align 8
  %val = alloca i64, align 8
  %endptr = alloca ptr, align 8
  %val2 = alloca i64, align 8
  store ptr %v, ptr %v.addr, align 8
  store ptr %name, ptr %name.addr, align 8
  store ptr %obj, ptr %obj.addr, align 8
  store ptr %errp, ptr %errp.addr, align 8
  %0 = load ptr, ptr %v.addr, align 8
  %call = call ptr @to_ov(ptr noundef %0)
  store ptr %call, ptr %ov, align 8
  %1 = load ptr, ptr %ov, align 8
  %list_mode = getelementptr inbounds %struct.OptsVisitor, ptr %1, i32 0, i32 4
  %2 = load i32, ptr %list_mode, align 8
  %cmp = icmp eq i32 %2, 2
  br i1 %cmp, label %if.then, label %if.end

if.then:                                          ; preds = %entry
  %3 = load ptr, ptr %ov, align 8
  %range_next = getelementptr inbounds %struct.OptsVisitor, ptr %3, i32 0, i32 6
  %4 = load i64, ptr %range_next, align 8
  %5 = load ptr, ptr %obj.addr, align 8
  store i64 %4, ptr %5, align 8
  store i1 true, ptr %retval, align 1
  br label %return

if.end:                                           ; preds = %entry
  %6 = load ptr, ptr %ov, align 8
  %7 = load ptr, ptr %name.addr, align 8
  %8 = load ptr, ptr %errp.addr, align 8
  %call1 = call ptr @lookup_scalar(ptr noundef %6, ptr noundef %7, ptr noundef %8)
  store ptr %call1, ptr %opt, align 8
  %9 = load ptr, ptr %opt, align 8
  %tobool = icmp ne ptr %9, null
  br i1 %tobool, label %if.end3, label %if.then2

if.then2:                                         ; preds = %if.end
  store i1 false, ptr %retval, align 1
  br label %return

if.end3:                                          ; preds = %if.end
  %10 = load ptr, ptr %opt, align 8
  %str4 = getelementptr inbounds %struct.QemuOpt, ptr %10, i32 0, i32 1
  %11 = load ptr, ptr %str4, align 8
  %tobool5 = icmp ne ptr %11, null
  br i1 %tobool5, label %cond.true, label %cond.false

cond.true:                                        ; preds = %if.end3
  %12 = load ptr, ptr %opt, align 8
  %str6 = getelementptr inbounds %struct.QemuOpt, ptr %12, i32 0, i32 1
  %13 = load ptr, ptr %str6, align 8
  br label %cond.end

cond.false:                                       ; preds = %if.end3
  br label %cond.end

cond.end:                                         ; preds = %cond.false, %cond.true
  %cond = phi ptr [ %13, %cond.true ], [ @.str.9, %cond.false ]
  store ptr %cond, ptr %str, align 8
  %14 = load ptr, ptr %ov, align 8
  %list_mode7 = getelementptr inbounds %struct.OptsVisitor, ptr %14, i32 0, i32 4
  %15 = load i32, ptr %list_mode7, align 8
  %cmp8 = icmp eq i32 %15, 0
  br i1 %cmp8, label %if.then11, label %lor.lhs.false

lor.lhs.false:                                    ; preds = %cond.end
  %16 = load ptr, ptr %ov, align 8
  %list_mode9 = getelementptr inbounds %struct.OptsVisitor, ptr %16, i32 0, i32 4
  %17 = load i32, ptr %list_mode9, align 8
  %cmp10 = icmp eq i32 %17, 1
  br i1 %cmp10, label %if.then11, label %if.else

if.then11:                                        ; preds = %lor.lhs.false, %cond.end
  br label %if.end12

if.else:                                          ; preds = %lor.lhs.false
  call void @__assert_fail(ptr noundef @.str.10, ptr noundef @.str.1, i32 noundef 415, ptr noundef @__PRETTY_FUNCTION__.opts_type_int64) #7
  unreachable

if.end12:                                         ; preds = %if.then11
  %call13 = call ptr @__errno_location() #10
  store i32 0, ptr %call13, align 4
  %18 = load ptr, ptr %str, align 8
  %call14 = call i64 @strtoll(ptr noundef %18, ptr noundef %endptr, i32 noundef 0) #11
  store i64 %call14, ptr %val, align 8
  %call15 = call ptr @__errno_location() #10
  %19 = load i32, ptr %call15, align 4
  %cmp16 = icmp eq i32 %19, 0
  br i1 %cmp16, label %land.lhs.true, label %if.end67

land.lhs.true:                                    ; preds = %if.end12
  %20 = load ptr, ptr %endptr, align 8
  %21 = load ptr, ptr %str, align 8
  %cmp17 = icmp ugt ptr %20, %21
  br i1 %cmp17, label %land.lhs.true18, label %if.end67

land.lhs.true18:                                  ; preds = %land.lhs.true
  %22 = load i64, ptr %val, align 8
  %cmp19 = icmp sle i64 -9223372036854775808, %22
  br i1 %cmp19, label %land.lhs.true20, label %if.end67

land.lhs.true20:                                  ; preds = %land.lhs.true18
  %23 = load i64, ptr %val, align 8
  %cmp21 = icmp sle i64 %23, 9223372036854775807
  br i1 %cmp21, label %if.then22, label %if.end67

if.then22:                                        ; preds = %land.lhs.true20
  %24 = load ptr, ptr %endptr, align 8
  %25 = load i8, ptr %24, align 1
  %conv = sext i8 %25 to i32
  %cmp23 = icmp eq i32 %conv, 0
  br i1 %cmp23, label %if.then25, label %if.end26

if.then25:                                        ; preds = %if.then22
  %26 = load i64, ptr %val, align 8
  %27 = load ptr, ptr %obj.addr, align 8
  store i64 %26, ptr %27, align 8
  %28 = load ptr, ptr %ov, align 8
  %29 = load ptr, ptr %name.addr, align 8
  call void @processed(ptr noundef %28, ptr noundef %29)
  store i1 true, ptr %retval, align 1
  br label %return

if.end26:                                         ; preds = %if.then22
  %30 = load ptr, ptr %endptr, align 8
  %31 = load i8, ptr %30, align 1
  %conv27 = sext i8 %31 to i32
  %cmp28 = icmp eq i32 %conv27, 45
  br i1 %cmp28, label %land.lhs.true30, label %if.end66

land.lhs.true30:                                  ; preds = %if.end26
  %32 = load ptr, ptr %ov, align 8
  %list_mode31 = getelementptr inbounds %struct.OptsVisitor, ptr %32, i32 0, i32 4
  %33 = load i32, ptr %list_mode31, align 8
  %cmp32 = icmp eq i32 %33, 1
  br i1 %cmp32, label %if.then34, label %if.end66

if.then34:                                        ; preds = %land.lhs.true30
  %34 = load ptr, ptr %endptr, align 8
  %add.ptr = getelementptr i8, ptr %34, i64 1
  store ptr %add.ptr, ptr %str, align 8
  %35 = load ptr, ptr %str, align 8
  %call35 = call i64 @strtoll(ptr noundef %35, ptr noundef %endptr, i32 noundef 0) #11
  store i64 %call35, ptr %val2, align 8
  %call36 = call ptr @__errno_location() #10
  %36 = load i32, ptr %call36, align 4
  %cmp37 = icmp eq i32 %36, 0
  br i1 %cmp37, label %land.lhs.true39, label %if.end65

land.lhs.true39:                                  ; preds = %if.then34
  %37 = load ptr, ptr %endptr, align 8
  %38 = load ptr, ptr %str, align 8
  %cmp40 = icmp ugt ptr %37, %38
  br i1 %cmp40, label %land.lhs.true42, label %if.end65

land.lhs.true42:                                  ; preds = %land.lhs.true39
  %39 = load ptr, ptr %endptr, align 8
  %40 = load i8, ptr %39, align 1
  %conv43 = sext i8 %40 to i32
  %cmp44 = icmp eq i32 %conv43, 0
  br i1 %cmp44, label %land.lhs.true46, label %if.end65

land.lhs.true46:                                  ; preds = %land.lhs.true42
  %41 = load i64, ptr %val2, align 8
  %cmp47 = icmp sle i64 -9223372036854775808, %41
  br i1 %cmp47, label %land.lhs.true49, label %if.end65

land.lhs.true49:                                  ; preds = %land.lhs.true46
  %42 = load i64, ptr %val2, align 8
  %cmp50 = icmp sle i64 %42, 9223372036854775807
  br i1 %cmp50, label %land.lhs.true52, label %if.end65

land.lhs.true52:                                  ; preds = %land.lhs.true49
  %43 = load i64, ptr %val, align 8
  %44 = load i64, ptr %val2, align 8
  %cmp53 = icmp sle i64 %43, %44
  br i1 %cmp53, label %land.lhs.true55, label %if.end65

land.lhs.true55:                                  ; preds = %land.lhs.true52
  %45 = load i64, ptr %val, align 8
  %cmp56 = icmp sgt i64 %45, 9223372036854710271
  br i1 %cmp56, label %if.then61, label %lor.lhs.false58

lor.lhs.false58:                                  ; preds = %land.lhs.true55
  %46 = load i64, ptr %val2, align 8
  %47 = load i64, ptr %val, align 8
  %add = add i64 %47, 65536
  %cmp59 = icmp slt i64 %46, %add
  br i1 %cmp59, label %if.then61, label %if.end65

if.then61:                                        ; preds = %lor.lhs.false58, %land.lhs.true55
  %48 = load i64, ptr %val, align 8
  %49 = load ptr, ptr %ov, align 8
  %range_next62 = getelementptr inbounds %struct.OptsVisitor, ptr %49, i32 0, i32 6
  store i64 %48, ptr %range_next62, align 8
  %50 = load i64, ptr %val2, align 8
  %51 = load ptr, ptr %ov, align 8
  %range_limit = getelementptr inbounds %struct.OptsVisitor, ptr %51, i32 0, i32 7
  store i64 %50, ptr %range_limit, align 8
  %52 = load ptr, ptr %ov, align 8
  %list_mode63 = getelementptr inbounds %struct.OptsVisitor, ptr %52, i32 0, i32 4
  store i32 2, ptr %list_mode63, align 8
  %53 = load ptr, ptr %ov, align 8
  %range_next64 = getelementptr inbounds %struct.OptsVisitor, ptr %53, i32 0, i32 6
  %54 = load i64, ptr %range_next64, align 8
  %55 = load ptr, ptr %obj.addr, align 8
  store i64 %54, ptr %55, align 8
  store i1 true, ptr %retval, align 1
  br label %return

if.end65:                                         ; preds = %lor.lhs.false58, %land.lhs.true52, %land.lhs.true49, %land.lhs.true46, %land.lhs.true42, %land.lhs.true39, %if.then34
  br label %if.end66

if.end66:                                         ; preds = %if.end65, %land.lhs.true30, %if.end26
  br label %if.end67

if.end67:                                         ; preds = %if.end66, %land.lhs.true20, %land.lhs.true18, %land.lhs.true, %if.end12
  %56 = load ptr, ptr %errp.addr, align 8
  %57 = load ptr, ptr %opt, align 8
  %name68 = getelementptr inbounds %struct.QemuOpt, ptr %57, i32 0, i32 0
  %58 = load ptr, ptr %name68, align 8
  %59 = load ptr, ptr %ov, align 8
  %list_mode69 = getelementptr inbounds %struct.OptsVisitor, ptr %59, i32 0, i32 4
  %60 = load i32, ptr %list_mode69, align 8
  %cmp70 = icmp eq i32 %60, 0
  %cond72 = select i1 %cmp70, ptr @.str.12, ptr @.str.13
  call void (ptr, ptr, i32, ptr, ptr, ...) @error_setg_internal(ptr noundef %56, ptr noundef @.str.1, i32 noundef 446, ptr noundef @__func__.opts_type_int64, ptr noundef @.str.11, ptr noundef %58, ptr noundef %cond72)
  store i1 false, ptr %retval, align 1
  br label %return

return:                                           ; preds = %if.end67, %if.then61, %if.then25, %if.then2, %if.then
  %61 = load i1, ptr %retval, align 1
  ret i1 %61
}