; Function Attrs: nounwind sspstrong uwtable
define internal noundef zeroext i1 @opts_type_int64(ptr noundef captures(none) %v, ptr noundef %name, ptr noundef writeonly captures(none) %obj, ptr noundef %errp) #0 {
entry:
  %endptr = alloca ptr, align 8
  %list_mode = getelementptr inbounds nuw i8, ptr %v, i64 240
  %0 = load i32, ptr %list_mode, align 8
  %cmp = icmp eq i32 %0, 2
  br i1 %cmp, label %if.then, label %if.end

if.then:                                          ; preds = %entry
  %range_next = getelementptr inbounds nuw i8, ptr %v, i64 256
  %1 = load i64, ptr %range_next, align 8
  store i64 %1, ptr %obj, align 8
  br label %return

if.end:                                           ; preds = %entry
  %call1 = tail call fastcc ptr @lookup_scalar(ptr noundef nonnull %v, ptr noundef %name, ptr noundef %errp)
  %tobool.not = icmp eq ptr %call1, null
  br i1 %tobool.not, label %return, label %if.end3

if.end3:                                          ; preds = %if.end
  %str4 = getelementptr inbounds nuw i8, ptr %call1, i64 8
  %2 = load ptr, ptr %str4, align 8
  %tobool5.not = icmp eq ptr %2, null
  %spec.select = select i1 %tobool5.not, ptr @.str.9, ptr %2
  %3 = load i32, ptr %list_mode, align 8
  %switch = icmp ult i32 %3, 2
  br i1 %switch, label %if.end12, label %if.else

if.else:                                          ; preds = %if.end3
  tail call void @__assert_fail(ptr noundef nonnull @.str.10, ptr noundef nonnull @.str.1, i32 noundef 415, ptr noundef nonnull @__PRETTY_FUNCTION__.opts_type_int64) #8
  unreachable

if.end12:                                         ; preds = %if.end3
  %call13 = tail call ptr @__errno_location() #11
  store i32 0, ptr %call13, align 4
  %call14 = call i64 @strtoll(ptr noundef nonnull %spec.select, ptr noundef nonnull %endptr, i32 noundef 0) #10
  %4 = load i32, ptr %call13, align 4
  %cmp16 = icmp eq i32 %4, 0
  br i1 %cmp16, label %land.lhs.true, label %if.end67

land.lhs.true:                                    ; preds = %if.end12
  %5 = load ptr, ptr %endptr, align 8
  %cmp17 = icmp ugt ptr %5, %spec.select
  br i1 %cmp17, label %if.then22, label %if.end67

if.then22:                                        ; preds = %land.lhs.true
  %6 = load i8, ptr %5, align 1
  switch i8 %6, label %if.end67 [
    i8 0, label %if.then25
    i8 45, label %land.lhs.true30
  ]

if.then25:                                        ; preds = %if.then22
  store i64 %call14, ptr %obj, align 8
  tail call fastcc void @processed(ptr noundef nonnull %v, ptr noundef %name)
  br label %return

land.lhs.true30:                                  ; preds = %if.then22
  %7 = load i32, ptr %list_mode, align 8
  %cmp32 = icmp eq i32 %7, 1
  br i1 %cmp32, label %if.then34, label %if.end67

if.then34:                                        ; preds = %land.lhs.true30
  %add.ptr = getelementptr i8, ptr %5, i64 1
  %call35 = call i64 @strtoll(ptr noundef %add.ptr, ptr noundef nonnull %endptr, i32 noundef 0) #10
  %8 = load i32, ptr %call13, align 4
  %cmp37 = icmp eq i32 %8, 0
  br i1 %cmp37, label %land.lhs.true39, label %if.end67

land.lhs.true39:                                  ; preds = %if.then34
  %9 = load ptr, ptr %endptr, align 8
  %cmp40 = icmp ugt ptr %9, %add.ptr
  br i1 %cmp40, label %land.lhs.true42, label %if.end67

land.lhs.true42:                                  ; preds = %land.lhs.true39
  %10 = load i8, ptr %9, align 1
  %cmp44 = icmp ne i8 %10, 0
  %cmp53.not = icmp sgt i64 %call14, %call35
  %or.cond = select i1 %cmp44, i1 true, i1 %cmp53.not
  br i1 %or.cond, label %if.end67, label %land.lhs.true55

land.lhs.true55:                                  ; preds = %land.lhs.true42
  %cmp56 = icmp sgt i64 %call14, 9223372036854710271
  %add = add nsw i64 %call14, 65536
  %cmp59 = icmp slt i64 %call35, %add
  %or.cond38 = select i1 %cmp56, i1 true, i1 %cmp59
  br i1 %or.cond38, label %if.then61, label %if.end67

if.then61:                                        ; preds = %land.lhs.true55
  %range_next62 = getelementptr inbounds nuw i8, ptr %v, i64 256
  store i64 %call14, ptr %range_next62, align 8
  %range_limit = getelementptr inbounds nuw i8, ptr %v, i64 264
  store i64 %call35, ptr %range_limit, align 8
  store i32 2, ptr %list_mode, align 8
  store i64 %call14, ptr %obj, align 8
  br label %return

if.end67:                                         ; preds = %land.lhs.true55, %if.then22, %land.lhs.true30, %land.lhs.true42, %land.lhs.true39, %if.then34, %land.lhs.true, %if.end12
  %11 = load ptr, ptr %call1, align 8
  %12 = load i32, ptr %list_mode, align 8
  %cmp70 = icmp eq i32 %12, 0
  %cond72 = select i1 %cmp70, ptr @.str.12, ptr @.str.13
  tail call void (ptr, ptr, i32, ptr, ptr, ...) @error_setg_internal(ptr noundef %errp, ptr noundef nonnull @.str.1, i32 noundef 446, ptr noundef nonnull @__func__.opts_type_int64, ptr noundef nonnull @.str.11, ptr noundef %11, ptr noundef nonnull %cond72) #10
  br label %return

return:                                           ; preds = %if.end, %if.end67, %if.then61, %if.then25, %if.then
  %retval.0 = phi i1 [ true, %if.then ], [ true, %if.then25 ], [ true, %if.then61 ], [ false, %if.end67 ], [ false, %if.end ]
  ret i1 %retval.0
}